; ModuleID = '14/1255.c'
source_filename = "14/1255.c"
target datalayout = "e-m:e-p270:32:32-p271:32:32-p272:64:64-i64:64-f80:128-n8:16:32:64-S128"
target triple = "x86_64-pc-linux-gnu"

@.str = private unnamed_addr constant [3 x i8] c"%d\00", align 1
@.str.1 = private unnamed_addr constant [7 x i8] c"%d%d%d\00", align 1
@k = common dso_local global [99999 x i32] zeroinitializer, align 16
@x = common dso_local global [99999 x i32] zeroinitializer, align 16
@.str.2 = private unnamed_addr constant [19 x i8] c"%d %d\0A%d %d\0A%d %d\0A\00", align 1

; Function Attrs: noinline nounwind uwtable
define dso_local i32 @main() #0 {
  %1 = alloca i32, align 4
  %2 = alloca i32, align 4
  %3 = alloca i32, align 4
  %4 = alloca i32, align 4
  %5 = alloca i32, align 4
  %6 = alloca i32, align 4
  %7 = alloca i32, align 4
  %8 = alloca i32, align 4
  %9 = alloca i32, align 4
  %10 = alloca i32, align 4
  store i32 0, i32* %1, align 4
  store i32 0, i32* %10, align 4
  %11 = call i32 (i8*, ...) @__isoc99_scanf(i8* getelementptr inbounds ([3 x i8], [3 x i8]* @.str, i64 0, i64 0), i32* %2)
  store i32 0, i32* %3, align 4
  br label %12

12:                                               ; preds = %29, %0
  %13 = load i32, i32* %3, align 4
  %14 = load i32, i32* %2, align 4
  %15 = icmp slt i32 %13, %14
  br i1 %15, label %16, label %32

16:                                               ; preds = %12
  %17 = call i32 (i8*, ...) @__isoc99_scanf(i8* getelementptr inbounds ([7 x i8], [7 x i8]* @.str.1, i64 0, i64 0), i32* %4, i32* %5, i32* %6)
  %18 = load i32, i32* %5, align 4
  %19 = load i32, i32* %6, align 4
  %20 = add nsw i32 %18, %19
  %21 = load i32, i32* %4, align 4
  %22 = sub nsw i32 %21, 1
  %23 = sext i32 %22 to i64
  %24 = getelementptr inbounds [99999 x i32], [99999 x i32]* @k, i64 0, i64 %23
  store i32 %20, i32* %24, align 4
  %25 = load i32, i32* %4, align 4
  %26 = load i32, i32* %3, align 4
  %27 = sext i32 %26 to i64
  %28 = getelementptr inbounds [99999 x i32], [99999 x i32]* @x, i64 0, i64 %27
  store i32 %25, i32* %28, align 4
  br label %29

29:                                               ; preds = %16
  %30 = load i32, i32* %3, align 4
  %31 = add nsw i32 %30, 1
  store i32 %31, i32* %3, align 4
  br label %12

32:                                               ; preds = %12
  %33 = load i32, i32* %2, align 4
  %34 = sub nsw i32 %33, 1
  store i32 %34, i32* %7, align 4
  br label %35

35:                                               ; preds = %100, %32
  %36 = load i32, i32* %7, align 4
  %37 = icmp sge i32 %36, 0
  br i1 %37, label %38, label %103

38:                                               ; preds = %35
  store i32 0, i32* %8, align 4
  br label %39

39:                                               ; preds = %90, %38
  %40 = load i32, i32* %8, align 4
  %41 = load i32, i32* %7, align 4
  %42 = icmp slt i32 %40, %41
  br i1 %42, label %43, label %93

43:                                               ; preds = %39
  %44 = load i32, i32* %8, align 4
  %45 = sext i32 %44 to i64
  %46 = getelementptr inbounds [99999 x i32], [99999 x i32]* @k, i64 0, i64 %45
  %47 = load i32, i32* %46, align 4
  %48 = load i32, i32* %8, align 4
  %49 = add nsw i32 %48, 1
  %50 = sext i32 %49 to i64
  %51 = getelementptr inbounds [99999 x i32], [99999 x i32]* @k, i64 0, i64 %50
  %52 = load i32, i32* %51, align 4
  %53 = icmp sge i32 %47, %52
  br i1 %53, label %54, label %89

54:                                               ; preds = %43
  %55 = load i32, i32* %8, align 4
  %56 = add nsw i32 %55, 1
  %57 = sext i32 %56 to i64
  %58 = getelementptr inbounds [99999 x i32], [99999 x i32]* @k, i64 0, i64 %57
  %59 = load i32, i32* %58, align 4
  store i32 %59, i32* %9, align 4
  %60 = load i32, i32* %8, align 4
  %61 = sext i32 %60 to i64
  %62 = getelementptr inbounds [99999 x i32], [99999 x i32]* @k, i64 0, i64 %61
  %63 = load i32, i32* %62, align 4
  %64 = load i32, i32* %8, align 4
  %65 = add nsw i32 %64, 1
  %66 = sext i32 %65 to i64
  %67 = getelementptr inbounds [99999 x i32], [99999 x i32]* @k, i64 0, i64 %66
  store i32 %63, i32* %67, align 4
  %68 = load i32, i32* %9, align 4
  %69 = load i32, i32* %8, align 4
  %70 = sext i32 %69 to i64
  %71 = getelementptr inbounds [99999 x i32], [99999 x i32]* @k, i64 0, i64 %70
  store i32 %68, i32* %71, align 4
  %72 = load i32, i32* %8, align 4
  %73 = add nsw i32 %72, 1
  %74 = sext i32 %73 to i64
  %75 = getelementptr inbounds [99999 x i32], [99999 x i32]* @x, i64 0, i64 %74
  %76 = load i32, i32* %75, align 4
  store i32 %76, i32* %9, align 4
  %77 = load i32, i32* %8, align 4
  %78 = sext i32 %77 to i64
  %79 = getelementptr inbounds [99999 x i32], [99999 x i32]* @x, i64 0, i64 %78
  %80 = load i32, i32* %79, align 4
  %81 = load i32, i32* %8, align 4
  %82 = add nsw i32 %81, 1
  %83 = sext i32 %82 to i64
  %84 = getelementptr inbounds [99999 x i32], [99999 x i32]* @x, i64 0, i64 %83
  store i32 %80, i32* %84, align 4
  %85 = load i32, i32* %9, align 4
  %86 = load i32, i32* %8, align 4
  %87 = sext i32 %86 to i64
  %88 = getelementptr inbounds [99999 x i32], [99999 x i32]* @x, i64 0, i64 %87
  store i32 %85, i32* %88, align 4
  br label %89

89:                                               ; preds = %54, %43
  br label %90

90:                                               ; preds = %89
  %91 = load i32, i32* %8, align 4
  %92 = add nsw i32 %91, 1
  store i32 %92, i32* %8, align 4
  br label %39

93:                                               ; preds = %39
  %94 = load i32, i32* %10, align 4
  %95 = add nsw i32 %94, 1
  store i32 %95, i32* %10, align 4
  %96 = load i32, i32* %10, align 4
  %97 = icmp sgt i32 %96, 3
  br i1 %97, label %98, label %99

98:                                               ; preds = %93
  br label %103

99:                                               ; preds = %93
  br label %100

100:                                              ; preds = %99
  %101 = load i32, i32* %7, align 4
  %102 = add nsw i32 %101, -1
  store i32 %102, i32* %7, align 4
  br label %35

103:                                              ; preds = %98, %35
  %104 = load i32, i32* %2, align 4
  %105 = sub nsw i32 %104, 1
  %106 = sext i32 %105 to i64
  %107 = getelementptr inbounds [99999 x i32], [99999 x i32]* @x, i64 0, i64 %106
  %108 = load i32, i32* %107, align 4
  %109 = load i32, i32* %2, align 4
  %110 = sub nsw i32 %109, 1
  %111 = sext i32 %110 to i64
  %112 = getelementptr inbounds [99999 x i32], [99999 x i32]* @k, i64 0, i64 %111
  %113 = load i32, i32* %112, align 4
  %114 = load i32, i32* %2, align 4
  %115 = sub nsw i32 %114, 2
  %116 = sext i32 %115 to i64
  %117 = getelementptr inbounds [99999 x i32], [99999 x i32]* @x, i64 0, i64 %116
  %118 = load i32, i32* %117, align 4
  %119 = load i32, i32* %2, align 4
  %120 = sub nsw i32 %119, 2
  %121 = sext i32 %120 to i64
  %122 = getelementptr inbounds [99999 x i32], [99999 x i32]* @k, i64 0, i64 %121
  %123 = load i32, i32* %122, align 4
  %124 = load i32, i32* %2, align 4
  %125 = sub nsw i32 %124, 3
  %126 = sext i32 %125 to i64
  %127 = getelementptr inbounds [99999 x i32], [99999 x i32]* @x, i64 0, i64 %126
  %128 = load i32, i32* %127, align 4
  %129 = load i32, i32* %2, align 4
  %130 = sub nsw i32 %129, 3
  %131 = sext i32 %130 to i64
  %132 = getelementptr inbounds [99999 x i32], [99999 x i32]* @k, i64 0, i64 %131
  %133 = load i32, i32* %132, align 4
  %134 = call i32 (i8*, ...) @printf(i8* getelementptr inbounds ([19 x i8], [19 x i8]* @.str.2, i64 0, i64 0), i32 %108, i32 %113, i32 %118, i32 %123, i32 %128, i32 %133)
  ret i32 0
}

declare dso_local i32 @__isoc99_scanf(i8*, ...) #1

declare dso_local i32 @printf(i8*, ...) #1


!llvm.module.flags = !{!0}
!llvm.ident = !{!1}

!0 = !{i32 1, !"wchar_size", i32 4}
!1 = !{!"clang version 10.0.0-4ubuntu1 "}
